(dp1
S'output'
p2
S''
sS'layer'
p3
S'/home/www-data/web2py/applications/css_sprite/controllers/default.py'
p4
sS'code'
p5
S'# -*- coding: utf-8 -*- \n# this file is released under public domain and you can use without limitations\n\n#########################################################################\n## This is a samples controller\n## - index is the default action of any application\n## - user is required for authentication and authorization\n## - download is for downloading files uploaded in the db (does streaming)\n## - call exposes all registered services (none by default)\n#########################################################################\n\nimport logging\nimport os\n#import deleteFile\n\ndef index():\n    import uuid\n    session.uuid = str(uuid.uuid1())\n    logger.debug(\'\\n\\n------- New UUID : \' + session.uuid)\n    return dict()\n\ndef upload():\n    for r in request.vars:\n        if r=="qqfile":\n            filename=request.vars.qqfile\n            logger.debug(\'New file uploading : \' + filename)\n            db.upload.insert(file=db.upload.file.store(request.body,filename),\n                             name=filename,\n                             ns=session.uuid)\n            return response.json({\'success\':\'false\'})\n\ndef factor():\n    import uuid\n    logger.info(\'New refactoring in progress from \' + request.env.remote_addr)\n    query = (db.upload.ns==session.uuid)\n    rows = db(query).select()\n    file_path = []\n    file_raw = []\n    f_uuid = str(uuid.uuid1())\n    file_dest = os.path.join(request.folder, \'static/rendered\', \'rendered-\' + f_uuid + \'.png\')\n    # put name file in session\n    session.file_dest = os.path.join(\'/\', request.application, \'static/rendered\', \'rendered-\' + f_uuid + \'.png\')\n    # creating list file\n    for tmp in rows:\n        file_path.append(os.path.join(request.folder, \'uploads\', tmp[\'file\']))\n        file_raw.append(tmp[\'name\'])\n        logger.debug(\'File usage : \' + os.path.join(request.folder, \'uploads\', tmp[\'file\']))\n    # MAIN SOFT\n    logger.debug(\'Importing concateImages\')\n    concateImage = local_import(\'concateImage\', reload=True)\n    try:\n        session.data_img, session.data_preview = concateImage.concate_image(file_dest, file_path, file_raw, logger)\n    except IOError:\n        # Error handling\n        logger.error(\'Wrong file type\')\n        db(query).delete()\n        return response.json({\'success\':\'true\', \'processing\' : \'failed\'})\n    # delete all files with session uuid\n    logger.debug(\'Deleting tmp files\')\n    db(query).delete()\n    return response.json({\'success\':\'true\', \'processing\' : \'done\',\'redirect\' : \'/\' + request.application + \'/default/\' + \'processed\'})\n\ndef processed():\n    preview = session.file_dest.replace(\'.png\', \'-thumb.png\')\n    css_tag = session.data_img[0]\n    html = session.data_preview.split(\'/\')[-3:]\n    html_preview = os.path.join(\'/\', request.application, html[0], html[1], html[2])\n#    print html_preview\n    return dict(url=session.file_dest, preview=preview, data=session.data_img[1:], css_tag=css_tag, html=html_preview)\n\ndef user():\n    return dict(form=auth())\n\n#def download():\n    \n\ndef _download():\n    import gluon.contenttype\n    response.headers[\'Content-Type\']=gluon.contenttype.contenttype(\'.png\')\n    return response.stream(open(session.file_dest, \'rb\'))\n\ndef call():\n    """\n    exposes services. for example:\n    http://..../[app]/default/call/jsonrpc\n    decorate with @services.jsonrpc the functions to expose\n    supports xml, json, xmlrpc, jsonrpc, amfrpc, rss, csv\n    """\n    session.forget()\n    print "MUAHAHHAHAHHA"\n    return service()\n\n\n\nresponse._vars=response._caller(factor)\n'
p6
sS'snapshot'
p7
(dp8
S'exception'
p9
(dp10
S'__hash__'
p11
S"<method-wrapper '__hash__' of exceptions.ValueError object at 0x8f4462c>"
p12
sS'__setattr__'
p13
S"<method-wrapper '__setattr__' of exceptions.ValueError object at 0x8f4462c>"
p14
sS'__reduce_ex__'
p15
S'<built-in method __reduce_ex__ of exceptions.ValueError object at 0x8f4462c>'
p16
sS'__getslice__'
p17
S"<method-wrapper '__getslice__' of exceptions.ValueError object at 0x8f4462c>"
p18
sS'__getitem__'
p19
S"<method-wrapper '__getitem__' of exceptions.ValueError object at 0x8f4462c>"
p20
sS'__setstate__'
p21
S'<built-in method __setstate__ of exceptions.ValueError object at 0x8f4462c>'
p22
sS'__reduce__'
p23
S'<built-in method __reduce__ of exceptions.ValueError object at 0x8f4462c>'
p24
sS'__str__'
p25
S"<method-wrapper '__str__' of exceptions.ValueError object at 0x8f4462c>"
p26
sS'args'
p27
S"('max() arg is an empty sequence',)"
p28
sS'__getattribute__'
p29
S"<method-wrapper '__getattribute__' of exceptions.ValueError object at 0x8f4462c>"
p30
sS'__class__'
p31
S"<type 'exceptions.ValueError'>"
p32
sS'__delattr__'
p33
S"<method-wrapper '__delattr__' of exceptions.ValueError object at 0x8f4462c>"
p34
sS'__repr__'
p35
S"<method-wrapper '__repr__' of exceptions.ValueError object at 0x8f4462c>"
p36
sS'__dict__'
p37
S'{}'
p38
sS'__doc__'
p39
S"'Inappropriate argument value (of correct type).'"
p40
sS'__init__'
p41
S"<method-wrapper '__init__' of exceptions.ValueError object at 0x8f4462c>"
p42
sS'__new__'
p43
S'<built-in method __new__ of type object at 0xb6b96880>'
p44
ssS'evalue'
p45
S'max() arg is an empty sequence'
p46
sS'request'
p47
(dp48
S'function'
p49
S"'factor'"
p50
sS'body'
p51
S"<open file '<fdopen>', mode 'w+b' at 0x8f8c698>"
p52
sS'wsgi'
p53
S"<Storage {'start_response': <function <lambda> a...docs', 'HTTP_ACCEPT_ENCODING': 'gzip, deflate'}}>"
p54
sS'extension'
p55
S"'html'"
p56
sS'vars'
p57
S'<Storage {}>'
p58
sS'url'
p59
S'<gluon.html.XML object at 0x8b8454c>'
p60
sg27
S'[]'
p61
sS'cookies'
p62
S"<SimpleCookie: __utma='210342152.1560532814.1307...41.218.132-42b54583-9b20-4635-85bc-79277f1b99d0'>"
p63
sS'application'
p64
S"'css_sprite'"
p65
sS'controller'
p66
S"'default'"
p67
sS'client'
p68
S"'121.241.218.132'"
p69
sS'is_restful'
p70
S'False'
p71
sS'env'
p72
S"<Storage {'content_length': '0', 'script_filenam...alse, 'path_info': '/css_sprite/default/factor'}>"
p73
sS'ajax'
p74
S'True'
p75
sS'get_vars'
p76
S'<Storage {}>'
p77
sS'folder'
p78
S"'/home/www-data/web2py/applications/css_sprite/'"
p79
sS'now'
p80
S'datetime.datetime(2011, 6, 6, 15, 57, 4, 879493)'
p81
sS'post_vars'
p82
S'<Storage {}>'
p83
ssS'frames'
p84
(lp85
(dp86
S'file'
p87
S'/home/www-data/web2py/gluon/restricted.py'
p88
sS'dump'
p89
(dp90
S'environment'
p91
S"{'A': <class 'gluon.html.A'>, 'Auth': <class 'gluon.tools.Auth'>, 'B': <class 'gluon.html.B'>, 'BEAUTIFY': <class 'gluon.html.BEAUTIFY'>, 'BODY': <class 'gluon.html.BODY'>, 'BR': <class 'gluon.html.BR'>, 'CENTER': <class 'gluon.html.CENTER'>, 'CLEANUP': <class 'gluon.validators.CLEANUP'>, 'CODE': <class 'gluon.html.CODE'>, 'CRYPT': <class 'gluon.validators.CRYPT'>, ...}"
p92
sS'ccode'
p93
S'<code object <module> at 0x8f0c650, file "/home/...ions/css_sprite/controllers/default.py", line 12>'
p94
ssS'lnum'
p95
I188
sS'lines'
p96
(dp97
I192
S'        # XXX Show exception in Wing IDE if running in debugger'
p98
sI183
S'        if type(code) == types.CodeType:'
p99
sI184
S'            ccode = code'
p100
sI185
S'        else:'
p101
sI186
S'            ccode = compile2(code,layer)'
p102
sI187
S''
sI188
S'        exec ccode in environment'
p103
sI189
S'    except HTTP:'
p104
sI190
S'        raise'
p105
sI191
S'    except Exception:'
p106
ssS'call'
p107
S"(code='# -*- coding: utf-8 -*- \\n# this file is released...ice()\\n\\n\\n\\nresponse._vars=response._caller(factor)\\n', environment={'A': <class 'gluon.html.A'>, 'Auth': <class 'gluon.tools.Auth'>, 'B': <class 'gluon.html.B'>, 'BEAUTIFY': <class 'gluon.html.BEAUTIFY'>, 'BODY': <class 'gluon.html.BODY'>, 'BR': <class 'gluon.html.BR'>, 'CENTER': <class 'gluon.html.CENTER'>, 'CLEANUP': <class 'gluon.validators.CLEANUP'>, 'CODE': <class 'gluon.html.CODE'>, 'CRYPT': <class 'gluon.validators.CRYPT'>, ...}, layer='/home/www-data/web2py/applications/css_sprite/controllers/default.py')"
p108
sS'func'
p109
S'restricted'
p110
sa(dp111
g87
S'/home/www-data/web2py/applications/css_sprite/controllers/default.py'
p112
sg89
(dp113
sg95
I95
sg96
(dp114
I84
S'    exposes services. for example:'
p115
sI85
S'    http://..../[app]/default/call/jsonrpc'
p116
sI86
S'    decorate with @services.jsonrpc the functions to expose'
p117
sI87
S'    supports xml, json, xmlrpc, jsonrpc, amfrpc, rss, csv'
p118
sI88
S'    """'
p119
sI89
S'    session.forget()'
p120
sI90
S'    print "MUAHAHHAHAHHA"'
p121
sI91
S'    return service()'
p122
sI92
S''
sI93
S''
ssg107
S'()'
p123
sg109
S'<module>'
p124
sa(dp125
g87
S'/home/www-data/web2py/gluon/globals.py'
p126
sg89
(dp127
S'self'
p128
S'undefined'
p129
sS'f'
S'<function factor at 0x9f41924>'
p130
ssg95
I124
sg96
(dp131
I128
S''
sI119
S"        self.flash = ''           # used by the default view layout"
p132
sI120
S'        self.meta = Storage()     # used by web2py_ajax.html'
p133
sI121
S'        self.menu = []            # used by the default view layout'
p134
sI122
S'        self.files = []           # used by web2py_ajax.html'
p135
sI123
S'        self._vars = None'
p136
sI124
S'        self._caller = lambda f: f()'
p137
sI125
S'        self._view_environment = None'
p138
sI126
S'        self._custom_commit = None'
p139
sI127
S'        self._custom_rollback = None'
p140
ssg107
S'(f=<function factor at 0x9f41924>)'
p141
sg109
S'<lambda>'
p142
sa(dp143
g87
S'/home/www-data/web2py/applications/css_sprite/controllers/default.py'
p144
sg89
(dp145
S'global session'
p146
S"<Storage {'file_dest': '/css_sprite/static/rende...bh\\xc4\\x85\\xab\\x170\\xaf\\t\\x07\\x03\\xb4t\\xad\\xad'}>"
p147
sS'session.data_img'
p148
S'None'
p149
sS'file_dest'
p150
S"'/home/www-data/web2py/applications/css_sprite/st...rendered-dc4c1e52-9044-11e0-b633-230c6bfeddb0.png'"
p151
sS'file_raw'
p152
S'[]'
p153
sS'concateImage'
p154
S"<module 'applications.css_sprite.modules.concate...pplications/css_sprite/modules/concateImage.pyc'>"
p155
sS'global logger'
p156
S'<logging.Logger instance at 0x8f0eaec>'
p157
sS'session.data_preview'
p158
S'None'
p159
sS'file_path'
p160
S'[]'
p161
sS'concateImage.concate_image'
p162
S'<function concate_image at 0x890909c>'
p163
ssg95
I52
sg96
(dp164
I47
S"        logger.debug('File usage : ' + os.path.join(request.folder, 'uploads', tmp['file']))"
p165
sI48
S'    # MAIN SOFT'
p166
sI49
S"    logger.debug('Importing concateImages')"
p167
sI50
S"    concateImage = local_import('concateImage', reload=True)"
p168
sI51
S'    try:'
p169
sI52
S'        session.data_img, session.data_preview = concateImage.concate_image(file_dest, file_path, file_raw, logger)'
p170
sI53
S'    except IOError:'
p171
sI54
S'        # Error handling'
p172
sI55
S"        logger.error('Wrong file type')"
p173
sI56
S'        db(query).delete()'
p174
ssg107
S'()'
p175
sg109
S'factor'
p176
sa(dp177
g87
S'/home/www-data/web2py/applications/css_sprite/modules/concateImage.py'
p178
sg89
(dp179
S'i'
g129
sS'images'
p180
S'[]'
p181
sS'mh'
p182
g129
sS'builtinmax'
p183
S'<built-in function max>'
p184
ssg95
I65
sg96
(dp185
I64
S'    w = sum(i.size[0] for i in images)'
p186
sI65
S'    mh = max(i.size[1] for i in images)'
p187
sI66
S'    result = Image.new("RGBA", (w, mh))'
p188
sI67
S'    css.append(\'<style type="text/css">\\n.wsa{\\nbackground-image : url("\'+ file_final.split(\'/\')[-1] + \'");\\n}\\n</style>\')'
p189
sI68
S'    x = 0'
p190
sI69
S'    j = 0'
p191
sI60
S'    except:'
p192
sI61
S'        #traceback.print_exc(file=sys.stdout)'
p193
sI62
S'        raise IOError("Wrong file type")'
p194
sI63
S'    css_template = \'<div class="wsa" style="background-position : -%dpx 0px; width : %dpx; height : %dpx;"></div>\''
p195
ssg107
S"(file_final='/home/www-data/web2py/applications/css_sprite/st...rendered-dc4c1e52-9044-11e0-b633-230c6bfeddb0.png', files=[], files_raw=[], logger=<logging.Logger instance at 0x8f0eaec>)"
p196
sg109
S'concate_image'
p197
sasS'pyver'
p198
S'Python 2.5.2: /usr/bin/python'
p199
sS'session'
p200
(dp201
S'file_dest'
p202
S"'/css_sprite/static/rendered/rendered-dc4c1e52-9044-11e0-b633-230c6bfeddb0.png'"
p203
sS'uuid'
p204
S"'588b0034-9043-11e0-825c-230c6bfeddb0'"
p205
sS'_Session__hash'
p206
S"'\\xbd\\xfbh\\xc4\\x85\\xab\\x170\\xaf\\t\\x07\\x03\\xb4t\\xad\\xad'"
p207
ssS'etype'
p208
S"<type 'exceptions.ValueError'>"
p209
sS'date'
p210
S'Mon Jun  6 15:57:05 2011'
p211
sS'response'
p212
(dp213
S'status'
p214
S'200'
p215
sg51
S'<cStringIO.StringO object at 0x8b84440>'
p216
sg62
S"<SimpleCookie: session_id_css_sprite='121.241.218.132-42b54583-9b20-4635-85bc-79277f1b99d0'>"
p217
sS'session_locked'
p218
g75
sS'subtitle'
p219
S"<lazyT 'customize me!'>"
p220
sS'title'
p221
S"'css_sprite'"
p222
sS'session_file'
p223
S"<open file '/home/www-data/web2py/applications/c...4635-85bc-79277f1b99d0', mode 'rb+' at 0x8f8c890>"
p224
sS'flash'
p225
S"''"
p226
sS'session_new'
p227
g71
sS'session_id'
p228
S"'121.241.218.132-42b54583-9b20-4635-85bc-79277f1b99d0'"
p229
sS'headers'
p230
S"<Storage {'Expires': 'Mon, 06 Jun 2011 13:57:04 ...he, must-revalidate, post-check=0, pre-check=0'}>"
p231
sS'meta'
p232
S"<Storage {'keywords': 'web2py, python, framework... 'Web2py Enterprise Framework', 'author': 'you'}>"
p233
sS'session_filename'
p234
S"'/home/www-data/web2py/applications/css_sprite/se....241.218.132-42b54583-9b20-4635-85bc-79277f1b99d0'"
p235
sS'postprocessing'
p236
S'[]'
p237
sS'menu'
p238
S"[(<lazyT 'Home'>, False, <gluon.html.XML object at 0x9f3950c>, []), (<lazyT 'This App'>, False, <gluon.html.XML object at 0x9f398ac>, [(<lazyT 'Controller'>, False, <gluon.html.XML object at 0x9f39f0c>), (<lazyT 'View'>, False, <gluon.html.XML object at 0x9f396ec>), (<lazyT 'Layout'>, False, <gluon.html.XML object at 0x9f39cec>), (<lazyT 'Stylesheet'>, False, <gluon.html.XML object at 0x9f399ec>), (<lazyT 'DB Model'>, False, <gluon.html.XML object at 0x9f39cac>), (<lazyT 'Menu Model'>, False, <gluon.html.XML object at 0x915e26c>), (<lazyT 'Database'>, False, <gluon.html.XML object at 0x915e1ac>), (<lazyT 'Errors'>, False, <gluon.html.XML object at 0x915e3cc>), (<lazyT 'About'>, False, <gluon.html.XML object at 0x915e08c>)]), (<lazyT 'Resources'>, False, None, [(<lazyT 'Documentation'>, False, 'http://www.web2py.com/book', [(<lazyT 'Preface'>, False, 'http://www.web2py.com/book/default/chapter/00'), (<lazyT 'Introduction'>, False, 'http://www.web2py.com/book/default/chapter/01'), (<lazyT 'Python'>, False, 'http://www.web2py.com/book/default/chapter/02'), (<lazyT 'Overview'>, False, 'http://www.web2py.com/book/default/chapter/03'), (<lazyT 'The Core'>, False, 'http://www.web2py.com/book/default/chapter/04'), (<lazyT 'The Views'>, False, 'http://www.web2py.com/book/default/chapter/05'), (<lazyT 'Database'>, False, 'http://www.web2py.com/book/default/chapter/06'), (<lazyT 'Forms and Validators'>, False, 'http://www.web2py.com/book/default/chapter/07'), (<lazyT 'Access Control'>, False, 'http://www.web2py.com/book/default/chapter/08'), (<lazyT 'Services'>, False, 'http://www.web2py.com/book/default/chapter/09'), (<lazyT 'Ajax Recipes'>, False, 'http://www.web2py.com/book/default/chapter/10'), (<lazyT 'Deployment Recipes'>, False, 'http://www.web2py.com/book/default/chapter/11'), (<lazyT 'Other Recipes'>, False, 'http://www.web2py.com/book/default/chapter/12'), (<lazyT 'Buy this book'>, False, 'http://stores.lulu.com/web2py')]), (<lazyT 'Community'>, False, None, [(<lazyT 'Groups'>, False, 'http://www.web2py.com/examples/default/usergroups'), (<lazyT 'Twitter'>, False, 'http://twitter.com/web2py'), (<lazyT 'Live chat'>, False, 'http://mibbit.com/?channel=%23web2py&server=irc.mibbit.net'), (<lazyT 'User Voice'>, False, 'http://web2py.uservoice.com/')]), (<lazyT 'Web2py'>, False, 'http://www.web2py.com', [(<lazyT 'Download'>, False, 'http://www.web2py.com/examples/default/download'), (<lazyT 'Support'>, False, 'http://www.web2py.com/examples/default/support'), (<lazyT 'Quick Examples'>, False, 'http://web2py.com/examples/default/examples'), (<lazyT 'FAQ'>, False, 'http://web2py.com/AlterEgo'), (<lazyT 'Free Applications'>, False, 'http://web2py.com/appliances'), (<lazyT 'Plugins'>, False, 'http://web2py.com/plugins'), (<lazyT 'Recipes'>, False, 'http://web2pyslices.com/'), (<lazyT 'Demo'>, False, 'http://web2py.com/demo_admin'), (<lazyT 'Semantic'>, False, 'http://web2py.com/semantic'), (<lazyT 'Layouts'>, False, 'http://web2py.com/layouts'), (<lazyT 'Videos'>, False, 'http://www.web2py.com/examples/default/videos/')])])]"
p239
sS'_view_environment'
p240
S"{'A': <class 'gluon.html.A'>, 'Auth': <class 'gluon.tools.Auth'>, 'B': <class 'gluon.html.B'>, 'BEAUTIFY': <class 'gluon.html.BEAUTIFY'>, 'BODY': <class 'gluon.html.BODY'>, 'BR': <class 'gluon.html.BR'>, 'CENTER': <class 'gluon.html.CENTER'>, 'CLEANUP': <class 'gluon.validators.CLEANUP'>, 'CODE': <class 'gluon.html.CODE'>, 'CRYPT': <class 'gluon.validators.CRYPT'>, ...}"
p241
sS'session_id_name'
p242
S"'session_id_css_sprite'"
p243
sS'_caller'
p244
S'<function <lambda> at 0x8bb05dc>'
p245
sS'files'
p246
S'[]'
p247
sS'view'
p248
S"'default/factor.html'"
p249
ssS'locals'
p250
(dp251
g246
S'[]'
p252
sS'css_template'
p253
S'\'<div class="wsa" style="background-position : -%dpx 0px; width : %dpx; height : %dpx;"></div>\''
p254
sS'files_raw'
p255
S'[]'
p256
sS'file_final'
p257
S"'/home/www-data/web2py/applications/css_sprite/st...rendered-dc4c1e52-9044-11e0-b633-230c6bfeddb0.png'"
p258
sS'w'
S'0'
sS'images'
p259
S'[]'
p260
sS'logger'
p261
S'<logging.Logger instance at 0x8f0eaec>'
p262
sS'css'
p263
S'[]'
p264
sssS'traceback'
p265
S'Traceback (most recent call last):\n  File "/home/www-data/web2py/gluon/restricted.py", line 188, in restricted\n    exec ccode in environment\n  File "/home/www-data/web2py/applications/css_sprite/controllers/default.py", line 95, in <module>\n  File "/home/www-data/web2py/gluon/globals.py", line 124, in <lambda>\n    self._caller = lambda f: f()\n  File "/home/www-data/web2py/applications/css_sprite/controllers/default.py", line 52, in factor\n    session.data_img, session.data_preview = concateImage.concate_image(file_dest, file_path, file_raw, logger)\n  File "applications/css_sprite/modules/concateImage.py", line 65, in concate_image\n    mh = max(i.size[1] for i in images)\nValueError: max() arg is an empty sequence\n'
p266
s.